target datalayout = "e-m:e-p270:32:32-p271:32:32-p272:64:64-i64:64-i128:128-f80:128-n8:16:32:64-S128"
target triple = "x86_64-pc-linux-gnu"

%struct.archive_entry = type { ptr, ptr, i32, %struct.aest, i32, %struct.archive_mstring, i64, i64, %struct.archive_mstring, %struct.archive_mstring, %struct.archive_mstring, %struct.archive_mstring, %struct.archive_mstring, i8, ptr, i64, %struct.ae_digest, %struct.archive_acl, ptr, ptr, ptr, ptr, ptr, [12 x i8], i32 }
%struct.aest = type { i64, i32, i64, i32, i64, i32, i64, i32, i64, i64, i32, i64, i64, i32, i64, i64, i64, i32, i64, i64, i64 }
%struct.archive_mstring = type { %struct.archive_string, %struct.archive_string, %struct.archive_wstring, %struct.archive_string, i32 }
%struct.archive_wstring = type { ptr, i64, i64 }
%struct.archive_string = type { ptr, i64, i64 }
%struct.ae_digest = type { [16 x i8], [20 x i8], [20 x i8], [32 x i8], [48 x i8], [64 x i8] }
%struct.archive_acl = type { i32, ptr, ptr, i32, ptr, ptr, i32 }

; Function Attrs: inlinehint nounwind willreturn memory(none) uwtable
define available_externally i32 @gnu_dev_minor(i64 noundef %0) #7 {
  %2 = alloca i64, align 8
  %3 = alloca i32, align 4
  store i64 %0, ptr %2, align 8, !tbaa !27
  call void @llvm.lifetime.start.p0(i64 4, ptr %3) #13
  %4 = load i64, ptr %2, align 8, !tbaa !27
  %5 = and i64 %4, 255
  %6 = lshr i64 %5, 0
  %7 = trunc i64 %6 to i32
  store i32 %7, ptr %3, align 4, !tbaa !32
  %8 = load i64, ptr %2, align 8, !tbaa !27
  %9 = and i64 %8, 17592184995840
  %10 = lshr i64 %9, 12
  %11 = load i32, ptr %3, align 4, !tbaa !32
  %12 = zext i32 %11 to i64
  %13 = or i64 %12, %10
  %14 = trunc i64 %13 to i32
  store i32 %14, ptr %3, align 4, !tbaa !32
  %15 = load i32, ptr %3, align 4, !tbaa !32
  call void @llvm.lifetime.end.p0(i64 4, ptr %3) #13
  ret i32 %15
}

; Function Attrs: nounwind uwtable
define dso_local i64 @archive_entry_devminor(ptr noundef %0) #0 {
  %2 = alloca i64, align 8
  %3 = alloca ptr, align 8
  store ptr %0, ptr %3, align 8, !tbaa !4
  %4 = load ptr, ptr %3, align 8, !tbaa !4
  %5 = getelementptr inbounds nuw %struct.archive_entry, ptr %4, i32 0, i32 3
  %6 = getelementptr inbounds nuw %struct.aest, ptr %5, i32 0, i32 13
  %7 = load i32, ptr %6, align 8, !tbaa !62
  %8 = icmp ne i32 %7, 0
  br i1 %8, label %9, label %14

9:                                                ; preds = %1
  %10 = load ptr, ptr %3, align 8, !tbaa !4
  %11 = getelementptr inbounds nuw %struct.archive_entry, ptr %10, i32 0, i32 3
  %12 = getelementptr inbounds nuw %struct.aest, ptr %11, i32 0, i32 16
  %13 = load i64, ptr %12, align 8, !tbaa !64
  store i64 %13, ptr %2, align 8
  br label %21

14:                                               ; preds = %1
  %15 = load ptr, ptr %3, align 8, !tbaa !4
  %16 = getelementptr inbounds nuw %struct.archive_entry, ptr %15, i32 0, i32 3
  %17 = getelementptr inbounds nuw %struct.aest, ptr %16, i32 0, i32 14
  %18 = load i64, ptr %17, align 8, !tbaa !65
  %19 = call i32 @gnu_dev_minor(i64 noundef %18) #17
  %20 = zext i32 %19 to i64
  store i64 %20, ptr %2, align 8
  br label %21

21:                                               ; preds = %14, %9
  %22 = load i64, ptr %2, align 8
  ret i64 %22
}