; Function Attrs: mustprogress nofree norecurse nosync nounwind willreturn memory(argmem: read) uwtable
define dso_local i64 @archive_entry_devminor(ptr noundef readonly captures(none) %0) local_unnamed_addr #10 {
  %2 = getelementptr inbounds nuw i8, ptr %0, i64 128
  %3 = load i32, ptr %2, align 8, !tbaa !52
  %.not = icmp eq i32 %3, 0
  br i1 %.not, label %7, label %4

4:                                                ; preds = %1
  %5 = getelementptr inbounds nuw i8, ptr %0, i64 152
  %6 = load i64, ptr %5, align 8, !tbaa !54
  br label %14

7:                                                ; preds = %1
  %8 = getelementptr inbounds nuw i8, ptr %0, i64 136
  %9 = load i64, ptr %8, align 8, !tbaa !55
  %10 = and i64 %9, 255
  %11 = lshr i64 %9, 12
  %12 = and i64 %11, 4294967040
  %13 = or disjoint i64 %12, %10
  br label %14

14:                                               ; preds = %7, %4
  %.0 = phi i64 [ %6, %4 ], [ %13, %7 ]
  ret i64 %.0
}